    1                  	   .data
    2 10010000 000a	nl:     .asciiz "\n"
    3 10010002 72756f53	rs:     .asciiz "Source Row: "
    4 1001000f 72756f53	cs:     .asciiz "Source Column: "
    5 1001001f 74736544	rd:     .asciiz "Destination Row: "
    6 10010031 74736544	cd:     .asciiz "Destinatin Column: "
    7 10010045 6e756f46	fi:     .asciiz "Found it!"
    8 1001004f 20746f4e	nf:     .asciiz "Not Found!"
    9 1001005a 20646552	rw:     .asciiz "Red Won"
   10 10010062 74696857	ww:     .asciiz "White Won"
   11 1001006c 74697845	ex:     .asciiz "Exiting"
   12 10010074 6f727245	erm:    .asciiz "Error: Invalid jump or move"
   13 10010090 20656854	tp:     .asciiz "The possible moves are"
   14 100100a7 0009	tb:     .asciiz "\t"
   15 100100a9 65746e45	eu:     .asciiz "Enter a username: "
   16 100100bc         	es:     .space  15
   17 00400000         	    .globl main
   18                       
   19                  	    .code
   20                   main:
   21                   
   22 00400000 23bdfe70	    addi $sp,$sp,-400
   23 00400004 03a08021	    mov $s0,$sp
   24 00400008 23bdffec	    addi $sp,$sp,-20
   25 0040000c 03a08821	    mov $s1,$sp
   26 00400010 23bdfff8	    addi $sp,$sp,-8
   27 00400014 03a0d821	    mov $k1,$sp
   28 00400018 23bdfe80	    addi $sp,$sp,-384
   29 0040001c 03a0f021	    mov $fp,$sp
   30                       #-----Set Board----------------
   31                       
   32 00400020 00004021	    mov $t0,$zero
   33                       
   34 00400024 0810000e	    j setlooptest
   35                       
   36                   setloop:
   37 00400028 00085080	    sll $t2,$t0,2
   38 0040002c 01505020	    add $t2,$t2,$s0
   39 00400030 ad400000	    sw $zero,0($t2)
   40 00400034 21080001	    addi $t0,$t0,1
   41                       
   42                   setlooptest:
   43                  	    blt $t0,100,setloop
   43                  		li	$at,100 
   43 00400038 34010064		ori	$at,$0,0x64
   43 0040003c 0101082a		slt	$at,$t0,$at 
   43 00400040 1420fff9		bne	$at,$0,setloop 
   44                       
   45                  	    li $t9,1
   45 00400044 34190001		ori	$t9,$0,0x01
   46                  	    li $t1,0
   46 00400048 34090000		ori	$t1,$0,0x00
   47 0040004c 00005021	    mov $t2,$zero
   48                       
   49 00400050 0810002b	    j setredouttest
   50                   
   51                   setredout:  
   52 00400054 00005021	    mov $t2,$zero
   53                       
   54 00400058 08100027	    j setredintest
   55                       
   56                   setredin:
   57                       
   58                  	    mul $t3,$t1,10
   58                  		li	$at,10 
   58 0040005c 3401000a		ori	$at,$0,0x0A
   58 00400060 01210018		mult	$t1,$at 
   58 00400064 00005812		mflo	$t3 
   59 00400068 016a5820	    add $t3,$t3,$t2
   60                  	    mul $t3,$t3,4
   60                  		li	$at,4 
   60 0040006c 34010004		ori	$at,$0,0x04
   60 00400070 01610018		mult	$t3,$at 
   60 00400074 00005812		mflo	$t3 
   61                       
   62 00400078 01705820	    add $t3,$t3,$s0
   63                       
   64 0040007c 01202821	    mov $a1,$t1
   65 00400080 01403021	    mov $a2,$t2
   66                       
   67 00400084 0c1001ba	    jal isLegalPosition
   68                       
   69                  	    beq $v0,1,setred
   69                  		li	$at,1 
   69 00400088 34010001		ori	$at,$0,0x01
   69 0040008c 10410001		beq	$v0,$at,setred 
   70                       
   71 00400090 08100026	    j addtocol
   72                       
   73                   setred:
   74 00400094 ad790000	    sw $t9,0($t3)
   75                       
   76                   addtocol:
   77 00400098 214a0001	    addi $t2,$t2,1
   78                       
   79                   setredintest:
   80                  	    blt $t2,10,setredin
   80                  		li	$at,10 
   80 0040009c 3401000a		ori	$at,$0,0x0A
   80 004000a0 0141082a		slt	$at,$t2,$at 
   80 004000a4 1420ffed		bne	$at,$0,setredin 
   81                       
   82 004000a8 21290001	    addi $t1,$t1,1
   83                   
   84                   setredouttest:
   85                  	    ble $t1,2,setredout
   85                  		li	$at,2 
   85 004000ac 34010002		ori	$at,$0,0x02
   85 004000b0 0029082a		slt	$at,$at,$t1 
   85 004000b4 1020ffe7		beq	$at,$0,setredout 
   86                       
   87                  	    li $t9,3
   87 004000b8 34190003		ori	$t9,$0,0x03
   88                  	    li $t1,7
   88 004000bc 34090007		ori	$t1,$0,0x07
   89 004000c0 00005021	    mov $t2,$zero
   90                   
   91                       
   92 004000c4 08100048	    j setwhiteouttest
   93                   
   94                   setwhiteout:  
   95 004000c8 00005021	    mov $t2,$zero
   96                       
   97 004000cc 08100044	    j setwhiteintest
   98                       
   99                   setwhitein:
  100                       
  101                  	    mul $t3,$t1,10
  101                  		li	$at,10 
  101 004000d0 3401000a		ori	$at,$0,0x0A
  101 004000d4 01210018		mult	$t1,$at 
  101 004000d8 00005812		mflo	$t3 
  102 004000dc 016a5820	    add $t3,$t3,$t2
  103                  	    mul $t3,$t3,4
  103                  		li	$at,4 
  103 004000e0 34010004		ori	$at,$0,0x04
  103 004000e4 01610018		mult	$t3,$at 
  103 004000e8 00005812		mflo	$t3 
  104                       
  105 004000ec 01705820	    add $t3,$t3,$s0
  106                       
  107 004000f0 01202821	    mov $a1,$t1
  108 004000f4 01403021	    mov $a2,$t2
  109                       
  110 004000f8 0c1001ba	    jal isLegalPosition
  111                       
  112                  	    beq $v0,1,setwhite
  112                  		li	$at,1 
  112 004000fc 34010001		ori	$at,$0,0x01
  112 00400100 10410001		beq	$v0,$at,setwhite 
  113                       
  114 00400104 08100043	    j addtocol2
  115                       
  116                   setwhite:
  117 00400108 ad790000	    sw $t9,0($t3)
  118                       
  119                   addtocol2:
  120 0040010c 214a0001	    addi $t2,$t2,1
  121                       
  122                   setwhiteintest:
  123                  	    blt $t2,10,setwhitein
  123                  		li	$at,10 
  123 00400110 3401000a		ori	$at,$0,0x0A
  123 00400114 0141082a		slt	$at,$t2,$at 
  123 00400118 1420ffed		bne	$at,$0,setwhitein 
  124                       
  125 0040011c 21290001	    addi $t1,$t1,1
  126                   
  127                   setwhiteouttest:
  128                  	    ble $t1,9,setwhiteout
  128                  		li	$at,9 
  128 00400120 34010009		ori	$at,$0,0x09
  128 00400124 0029082a		slt	$at,$at,$t1 
  128 00400128 1020ffe7		beq	$at,$0,setwhiteout 
  129                       
  130 0040012c 00009821	    mov $s3,$zero
  131 00400130 00005821	    mov $t3,$zero
  132 00400134 00007021	    mov $t6,$zero
  133 00400138 00006021	    mov $t4,$zero
  134                       
  135 0040013c 00004021	    mov $t0,$zero
  136                       
  137                  	    li $t0,15
  137 00400140 3408000f		ori	$t0,$0,0x0F
  138 00400144 af680004	    sw $t0,4($k1)                               #red count
  139 00400148 af680000	    sw $t0,0($k1)                               #white count
  140                       
  141                  	    li $k0,0                                    #CurrColor - 0 //red
  141 0040014c 341a0000		ori	$k0,$0,0x00
  142                   
  143                   
  144                   setrandom:
  145                  	    li $t9,0
  145 00400150 34190000		ori	$t9,$0,0x00
  146                  	    li $a2,0x6000
  146 00400154 34066000		ori	$a2,$0,0x6000
  147 00400158 00009021	    mov $s2,$zero
  148                  	    la $a0,eu
  148 0040015c 3c041001		lui	$a0,0x1001
  148 00400160 348400a9		ori	$a0,$a0,0xA9
  149 00400164 0000010c	    syscall $print_string
  150                  	    la $a0,es
  150 00400168 3c041001		lui	$a0,0x1001
  150 0040016c 348400bc		ori	$a0,$a0,0xBC
  151                  	    li $a1,15
  151 00400170 3405000f		ori	$a1,$0,0x0F
  152 00400174 0000020c	    syscall $read_string
  153                       
  154                       
  155 00400178 000006cc	    syscall $random
  156 0040017c 23bdfffc	    addi $sp,$sp,-4
  157 00400180 afa20000	    sw $v0,0($sp)
  158 00400184 03a0e021	    mov $gp,$sp
  159                   
  160                       #-----Loop to ask for numbers and set in board---------
  161                       
  162                       
  163                   mainloop:
  164 00400188 0c100173	    jal displayboard
  165                  	    li $t9,0x1
  165 0040018c 34190001		ori	$t9,$0,0x01
  166                       
  167 00400190 13400002	    beqz $k0,askuser
  168                  	    beq $k0,1,askcomp
  168                  		li	$at,1 
  168 00400194 34010001		ori	$at,$0,0x01
  168 00400198 13410015		beq	$k0,$at,askcomp 
  169                   
  170                   askuser:
  171                  	    la $a0,rs
  171 0040019c 3c041001		lui	$a0,0x1001
  171 004001a0 34840002		ori	$a0,$a0,0x02
  172 004001a4 0000010c	    syscall $print_string
  173 004001a8 0000014c	    syscall $read_int
  174 004001ac ae22000c	    sw $v0,12($s1)
  175                       
  176                  	    la $a0,cs
  176 004001b0 3c041001		lui	$a0,0x1001
  176 004001b4 3484000f		ori	$a0,$a0,0x0F
  177 004001b8 0000010c	    syscall $print_string
  178 004001bc 0000014c	    syscall $read_int
  179 004001c0 ae220008	    sw $v0,8($s1)
  180                       
  181                  	    la $a0,rd
  181 004001c4 3c041001		lui	$a0,0x1001
  181 004001c8 3484001f		ori	$a0,$a0,0x1F
  182 004001cc 0000010c	    syscall $print_string
  183 004001d0 0000014c	    syscall $read_int
  184 004001d4 ae220004	    sw $v0,4($s1)
  185                       
  186                  	    la $a0,cd
  186 004001d8 3c041001		lui	$a0,0x1001
  186 004001dc 34840031		ori	$a0,$a0,0x31
  187 004001e0 0000010c	    syscall $print_string
  188 004001e4 0000014c	    syscall $read_int
  189 004001e8 ae220000	    sw $v0,0($s1)
  190                       
  191 004001ec 081000ec	    j nextmain
  192                       
  193                   askcomp:
  194 004001f0 8f890000	    lw $t1,0($gp)
  195                       
  196 004001f4 08100084	    j testrand
  197                       
  198                   whilerand:
  199 004001f8 0c1003e7	    jal lfsr
  200 004001fc 00404021	    mov $t0,$v0
  201 00400200 00129040	    sll $s2,$s2,1
  202 00400204 02429025	    or $s2,$s2,$v0
  203 00400208 02402021	    mov $a0,$s2
  204                       
  205 0040020c 23390001	    addi $t9,$t9,1
  206                       
  207                   testrand:
  208                  	    bne $t9,5,whilerand
  208                  		li	$at,5 
  208 00400210 34010005		ori	$at,$0,0x05
  208 00400214 1721fff8		bne	$t9,$at,whilerand 
  209                       
  210 00400218 02401821	    mov $v1,$s2
  211                       
  212 0040021c 0c100377	    jal getvalidjumps
  213                    
  214 00400220 00406021	    mov $t4,$v0
  215                       
  216 00400224 11800001	    beqz $t4,trymovesforcomp
  217                       
  218 00400228 081000bf	    j tryjumps
  219                       
  220                   trymovesforcomp:
  221 0040022c 0c1002d3	    jal getvalidmoves
  222                       
  223 00400230 0060b821	    mov $s7,$v1
  224 00400234 00406021	    mov $t4,$v0
  225 00400238 218bffff	    addi $t3,$t4,-1
  226                  	    rem $s7,$t3,$s7
  226 0040023c 16e00002		bne	$s7,$0,08f 
  226 00400240 00000000		nop 
  226 00400244 0000000d		break	 
  226 00400248 0177001a	08:	div	$t3,$s7 
  226 0040024c 0000b810		mfhi	$s7 
  227                       
  228                  	    mul $t5,$s7,4
  228                  		li	$at,4 
  228 00400250 34010004		ori	$at,$0,0x04
  228 00400254 02e10018		mult	$s7,$at 
  228 00400258 00006812		mflo	$t5 
  229                       
  230                  	    mul $t5,$t5,4
  230                  		li	$at,4 
  230 0040025c 34010004		ori	$at,$0,0x04
  230 00400260 01a10018		mult	$t5,$at 
  230 00400264 00006812		mflo	$t5 
  231                       
  232 00400268 01be7020	    add $t6,$t5,$fp
  233 0040026c 8dc40000	    lw $a0,0($t6)
  234 00400270 ae24000c	    sw $a0,12($s1)
  235                       
  236                  	    mul $t5,$s7,4
  236                  		li	$at,4 
  236 00400274 34010004		ori	$at,$0,0x04
  236 00400278 02e10018		mult	$s7,$at 
  236 0040027c 00006812		mflo	$t5 
  237 00400280 21ad0001	    addi $t5,$t5,1
  238                       
  239                  	    mul $t5,$t5,4
  239                  		li	$at,4 
  239 00400284 34010004		ori	$at,$0,0x04
  239 00400288 01a10018		mult	$t5,$at 
  239 0040028c 00006812		mflo	$t5 
  240                       
  241 00400290 01be7020	    add $t6,$t5,$fp
  242 00400294 8dc40000	    lw $a0,0($t6)
  243 00400298 ae240008	    sw $a0,8($s1)
  244                       
  245                       
  246                  	    mul $t5,$s7,4
  246                  		li	$at,4 
  246 0040029c 34010004		ori	$at,$0,0x04
  246 004002a0 02e10018		mult	$s7,$at 
  246 004002a4 00006812		mflo	$t5 
  247 004002a8 21ad0002	    addi $t5,$t5,2
  248                       
  249                  	    mul $t5,$t5,4
  249                  		li	$at,4 
  249 004002ac 34010004		ori	$at,$0,0x04
  249 004002b0 01a10018		mult	$t5,$at 
  249 004002b4 00006812		mflo	$t5 
  250                       
  251 004002b8 01be7020	    add $t6,$t5,$fp
  252 004002bc 8dc40000	    lw $a0,0($t6)
  253 004002c0 ae240004	    sw $a0,4($s1)
  254                   
  255                       
  256                  	    mul $t5,$s7,4
  256                  		li	$at,4 
  256 004002c4 34010004		ori	$at,$0,0x04
  256 004002c8 02e10018		mult	$s7,$at 
  256 004002cc 00006812		mflo	$t5 
  257 004002d0 21ad0003	    addi $t5,$t5,3
  258                       
  259                  	    mul $t5,$t5,4
  259                  		li	$at,4 
  259 004002d4 34010004		ori	$at,$0,0x04
  259 004002d8 01a10018		mult	$t5,$at 
  259 004002dc 00006812		mflo	$t5 
  260                       
  261 004002e0 01be7020	    add $t6,$t5,$fp
  262 004002e4 8dc40000	    lw $a0,0($t6)
  263 004002e8 ae240000	    sw $a0,0($s1)
  264                       
  265                  	    la $a0,nl
  265 004002ec 3c041001		lui	$a0,0x1001
  265 004002f0 34840000		ori	$a0,$a0,0x00
  266 004002f4 0000010c	    syscall $print_string
  267                       #jal printtuples
  268 004002f8 0c100114	    jal executemove
  269                       
  270                       #jal displayboard
  271                       
  272                   tryjumps:
  273 004002fc 0000b821	    mov $s7,$zero
  274                       
  275                  	    mul $t5,$s7,4
  275                  		li	$at,4 
  275 00400300 34010004		ori	$at,$0,0x04
  275 00400304 02e10018		mult	$s7,$at 
  275 00400308 00006812		mflo	$t5 
  276                       
  277                  	    mul $t5,$t5,4
  277                  		li	$at,4 
  277 0040030c 34010004		ori	$at,$0,0x04
  277 00400310 01a10018		mult	$t5,$at 
  277 00400314 00006812		mflo	$t5 
  278                       
  279 00400318 01be7020	    add $t6,$t5,$fp
  280 0040031c 8dc40000	    lw $a0,0($t6)
  281 00400320 ae24000c	    sw $a0,12($s1)
  282                       
  283                  	    mul $t5,$s7,4
  283                  		li	$at,4 
  283 00400324 34010004		ori	$at,$0,0x04
  283 00400328 02e10018		mult	$s7,$at 
  283 0040032c 00006812		mflo	$t5 
  284 00400330 21ad0001	    addi $t5,$t5,1
  285                       
  286                  	    mul $t5,$t5,4
  286                  		li	$at,4 
  286 00400334 34010004		ori	$at,$0,0x04
  286 00400338 01a10018		mult	$t5,$at 
  286 0040033c 00006812		mflo	$t5 
  287                       
  288 00400340 01be7020	    add $t6,$t5,$fp
  289 00400344 8dc40000	    lw $a0,0($t6)
  290 00400348 ae240008	    sw $a0,8($s1)
  291                       
  292                       
  293                  	    mul $t5,$s7,4
  293                  		li	$at,4 
  293 0040034c 34010004		ori	$at,$0,0x04
  293 00400350 02e10018		mult	$s7,$at 
  293 00400354 00006812		mflo	$t5 
  294 00400358 21ad0002	    addi $t5,$t5,2
  295                       
  296                  	    mul $t5,$t5,4
  296                  		li	$at,4 
  296 0040035c 34010004		ori	$at,$0,0x04
  296 00400360 01a10018		mult	$t5,$at 
  296 00400364 00006812		mflo	$t5 
  297                       
  298 00400368 01be7020	    add $t6,$t5,$fp
  299 0040036c 8dc40000	    lw $a0,0($t6)
  300 00400370 ae240004	    sw $a0,4($s1)
  301                   
  302                       
  303                  	    mul $t5,$s7,4
  303                  		li	$at,4 
  303 00400374 34010004		ori	$at,$0,0x04
  303 00400378 02e10018		mult	$s7,$at 
  303 0040037c 00006812		mflo	$t5 
  304 00400380 21ad0003	    addi $t5,$t5,3
  305                       
  306                  	    mul $t5,$t5,4
  306                  		li	$at,4 
  306 00400384 34010004		ori	$at,$0,0x04
  306 00400388 01a10018		mult	$t5,$at 
  306 0040038c 00006812		mflo	$t5 
  307                       
  308 00400390 01be7020	    add $t6,$t5,$fp
  309 00400394 8dc40000	    lw $a0,0($t6)
  310 00400398 ae240000	    sw $a0,0($s1)
  311                       
  312                  	    la $a0,nl
  312 0040039c 3c041001		lui	$a0,0x1001
  312 004003a0 34840000		ori	$a0,$a0,0x00
  313 004003a4 0000010c	    syscall $print_string
  314                       #jal printtuples
  315 004003a8 0c100134	    jal executejump
  316                       
  317 004003ac 081003ef	    j exit
  318                       
  319                   nextmain:
  320 004003b0 8e29000c	    lw $t1,12($s1)
  321 004003b4 8e2a0008	    lw $t2,8($s1)
  322                       
  323                  	    mul $t1,$t1,10
  323                  		li	$at,10 
  323 004003b8 3401000a		ori	$at,$0,0x0A
  323 004003bc 01210018		mult	$t1,$at 
  323 004003c0 00004812		mflo	$t1 
  324 004003c4 012a4820	    add $t1,$t1,$t2
  325                  	    mul $t1,$t1,4
  325                  		li	$at,4 
  325 004003c8 34010004		ori	$at,$0,0x04
  325 004003cc 01210018		mult	$t1,$at 
  325 004003d0 00004812		mflo	$t1 
  326 004003d4 01304820	    add $t1,$t1,$s0
  327 004003d8 8d290000	    lw $t1,0($t1)
  328 004003dc 00094842	    srl $t1,$t1,1
  329 004003e0 01394824	    and $t1,$t1,$t9
  330                       
  331 004003e4 113a0036	    beq $t1,$k0,checkforjump
  332                   secondcheck:
  333 004003e8 8e29000c	    lw $t1,12($s1)
  334 004003ec 8e2a0008	    lw $t2,8($s1)
  335                       
  336                  	    mul $t1,$t1,10
  336                  		li	$at,10 
  336 004003f0 3401000a		ori	$at,$0,0x0A
  336 004003f4 01210018		mult	$t1,$at 
  336 004003f8 00004812		mflo	$t1 
  337 004003fc 012a4820	    add $t1,$t1,$t2
  338                  	    mul $t1,$t1,4
  338                  		li	$at,4 
  338 00400400 34010004		ori	$at,$0,0x04
  338 00400404 01210018		mult	$t1,$at 
  338 00400408 00004812		mflo	$t1 
  339 0040040c 01304820	    add $t1,$t1,$s0
  340 00400410 8d290000	    lw $t1,0($t1)
  341 00400414 00094842	    srl $t1,$t1,1
  342 00400418 01394824	    and $t1,$t1,$t9
  343                       
  344 0040041c 113a0008	    beq $t1,$k0,checkformove
  345                       
  346                   ifinvalidthencontinue:
  347 00400420 081002cc	    j err
  348                       
  349                   changecolor:
  350 00400424 13400002	    beqz $k0,changered
  351                  	    beq $k0,1,changewhite
  351                  		li	$at,1 
  351 00400428 34010001		ori	$at,$0,0x01
  351 0040042c 13410002		beq	$k0,$at,changewhite 
  352                       
  353                   changered:
  354                  	    li $k0,1
  354 00400430 341a0001		ori	$k0,$0,0x01
  355                       
  356 00400434 08100062	    j mainloop
  357                       
  358                   changewhite:
  359                  	    li $k0,0
  359 00400438 341a0000		ori	$k0,$0,0x00
  360                       
  361 0040043c 08100062	    j mainloop
  362                       
  363                   checkformove:
  364 00400440 0c100279	    jal isValidMove
  365                       
  366                  	    beq $v0,1,executemove
  366                  		li	$at,1 
  366 00400444 34010001		ori	$at,$0,0x01
  366 00400448 10410001		beq	$v0,$at,executemove 
  367                       
  368 0040044c 08100108	    j ifinvalidthencontinue
  369                       
  370                   executemove:
  371 00400450 8e28000c	    lw $t0,12($s1)
  372 00400454 8e290008	    lw $t1,8($s1)
  373                       
  374                  	    mul $t0,$t0,10
  374                  		li	$at,10 
  374 00400458 3401000a		ori	$at,$0,0x0A
  374 0040045c 01010018		mult	$t0,$at 
  374 00400460 00004012		mflo	$t0 
  375 00400464 01094020	    add $t0,$t0,$t1
  376                  	    mul $t0,$t0,4
  376                  		li	$at,4 
  376 00400468 34010004		ori	$at,$0,0x04
  376 0040046c 01010018		mult	$t0,$at 
  376 00400470 00004012		mflo	$t0 
  377 00400474 01104020	    add $t0,$t0,$s0
  378                       
  379 00400478 8d0a0000	    lw $t2,0($t0)
  380                       
  381 0040047c ad000000	    sw $zero,0($t0)
  382                       
  383 00400480 8e2b0004	    lw $t3,4($s1)
  384 00400484 8e2c0000	    lw $t4,0($s1)
  385                       
  386                  	    mul $t3,$t3,10
  386                  		li	$at,10 
  386 00400488 3401000a		ori	$at,$0,0x0A
  386 0040048c 01610018		mult	$t3,$at 
  386 00400490 00005812		mflo	$t3 
  387 00400494 016c5820	    add $t3,$t3,$t4
  388                  	    mul $t3,$t3,4
  388                  		li	$at,4 
  388 00400498 34010004		ori	$at,$0,0x04
  388 0040049c 01610018		mult	$t3,$at 
  388 004004a0 00005812		mflo	$t3 
  389 004004a4 01705820	    add $t3,$t3,$s0
  390                       
  391 004004a8 ad6a0000	    sw $t2,0($t3)
  392                       
  393 004004ac 03402021	    mov $a0,$k0
  394 004004b0 8e250004	    lw $a1,4($s1)
  395                       
  396 004004b4 0c100250	    jal checkforking
  397                       
  398 004004b8 08100109	    j changecolor
  399                       
  400 004004bc 081003ef	    j exit
  401                       
  402                       
  403                       
  404                   checkforjump:
  405 004004c0 0c1001d4	    jal isValidJump
  406                       
  407                  	    beq $v0,1,executejump
  407                  		li	$at,1 
  407 004004c4 34010001		ori	$at,$0,0x01
  407 004004c8 10410001		beq	$v0,$at,executejump 
  408                   
  409 004004cc 081000fa	    j secondcheck
  410                       
  411                   executejump:
  412 004004d0 8e28000c	    lw $t0,12($s1)
  413 004004d4 8e290008	    lw $t1,8($s1)
  414                       
  415                  	    mul $t0,$t0,10
  415                  		li	$at,10 
  415 004004d8 3401000a		ori	$at,$0,0x0A
  415 004004dc 01010018		mult	$t0,$at 
  415 004004e0 00004012		mflo	$t0 
  416 004004e4 01094020	    add $t0,$t0,$t1
  417                  	    mul $t0,$t0,4
  417                  		li	$at,4 
  417 004004e8 34010004		ori	$at,$0,0x04
  417 004004ec 01010018		mult	$t0,$at 
  417 004004f0 00004012		mflo	$t0 
  418 004004f4 01104020	    add $t0,$t0,$s0
  419                       
  420 004004f8 8d0a0000	    lw $t2,0($t0)
  421                       
  422 004004fc ad000000	    sw $zero,0($t0)
  423                       
  424 00400500 8e2b0004	    lw $t3,4($s1)
  425 00400504 8e2c0000	    lw $t4,0($s1)
  426                       
  427                  	    mul $t3,$t3,10
  427                  		li	$at,10 
  427 00400508 3401000a		ori	$at,$0,0x0A
  427 0040050c 01610018		mult	$t3,$at 
  427 00400510 00005812		mflo	$t3 
  428 00400514 016c5820	    add $t3,$t3,$t4
  429                  	    mul $t3,$t3,4
  429                  		li	$at,4 
  429 00400518 34010004		ori	$at,$0,0x04
  429 0040051c 01610018		mult	$t3,$at 
  429 00400520 00005812		mflo	$t3 
  430 00400524 01705820	    add $t3,$t3,$s0
  431                       
  432 00400528 ad6a0000	    sw $t2,0($t3)
  433                  	    li $t9,2
  433 0040052c 34190002		ori	$t9,$0,0x02
  434                       
  435 00400530 8e28000c	    lw $t0,12($s1)                              #r1
  436 00400534 8e290008	    lw $t1,8($s1)                               #c1
  437 00400538 8e2a0004	    lw $t2,4($s1)                               #r2
  438 0040053c 8e2b0000	    lw $t3,0($s1)                               #c2
  439                       
  440 00400540 010a4020	    add $t0,$t0,$t2
  441 00400544 0119001a	    div $t0,$t9
  442 00400548 00004012	    mflo $t0                                    #rm
  443                       
  444 0040054c 012b4820	    add $t1,$t1,$t3
  445 00400550 0139001a	    div $t1,$t9
  446 00400554 00004812	    mflo $t1                                    #cm
  447                       
  448                  	    mul $t0,$t0,10
  448                  		li	$at,10 
  448 00400558 3401000a		ori	$at,$0,0x0A
  448 0040055c 01010018		mult	$t0,$at 
  448 00400560 00004012		mflo	$t0 
  449 00400564 01094020	    add $t0,$t0,$t1
  450                  	    mul $t0,$t0,4
  450                  		li	$at,4 
  450 00400568 34010004		ori	$at,$0,0x04
  450 0040056c 01010018		mult	$t0,$at 
  450 00400570 00004012		mflo	$t0 
  451 00400574 01104020	    add $t0,$t0,$s0
  452                       
  453 00400578 ad000000	    sw $zero,0($t0)
  454                       
  455 0040057c 13400003	    beqz $k0,decrementwhite
  456                  	    beq $k0,1,decrementred
  456                  		li	$at,1 
  456 00400580 34010001		ori	$at,$0,0x01
  456 00400584 13410005		beq	$k0,$at,decrementred 
  457                       
  458 00400588 0810016b	    j nextpart
  459                       
  460                   decrementwhite:
  461 0040058c 8f780000	    lw $t8,0($k1)
  462 00400590 2318ffff	    addi $t8,$t8,-1
  463 00400594 af780000	    sw $t8,0($k1)
  464                       
  465 00400598 0810016b	    j nextpart
  466                   
  467                   decrementred:
  468 0040059c 8f780004	    lw $t8,4($k1)
  469 004005a0 2318ffff	    addi $t8,$t8,-1
  470 004005a4 af780004	    sw $t8,4($k1)
  471                       
  472 004005a8 0810016b	    j nextpart
  473                   
  474                   nextpart:    
  475                       
  476 004005ac 03402021	    mov $a0,$k0
  477 004005b0 8e250004	    lw $a1,4($s1)
  478                      
  479 004005b4 0c100250	    jal checkforking
  480                       
  481 004005b8 8f780004	    lw $t8,4($k1)
  482 004005bc 13000103	    beqz $t8,printexit
  483                       
  484 004005c0 8f780000	    lw $t8,0($k1)
  485 004005c4 13000101	    beqz $t8,printexit
  486                       
  487 004005c8 08100109	    j changecolor
  488                       
  489                       
  490                   displayboard:
  491 004005cc 0000c821	    mov $t9,$zero
  492 004005d0 0000c021	    mov $t8,$zero
  493                       
  494                  	    li $t2,0
  494 004005d4 340a0000		ori	$t2,$0,0x00
  495                  	    li $s6,0
  495 004005d8 34160000		ori	$s6,$0,0x00
  496                  	    li $s7,0
  496 004005dc 34170000		ori	$s7,$0,0x00
  497                  	    li $t5,2
  497 004005e0 340d0002		ori	$t5,$0,0x02
  498                  	    li $t3,0
  498 004005e4 340b0000		ori	$t3,$0,0x00
  499                  	    li $t4,0
  499 004005e8 340c0000		ori	$t4,$0,0x00
  500                  	    li $t6,0
  500 004005ec 340e0000		ori	$t6,$0,0x00
  501                       
  502 004005f0 081001b5	    j loopouttest
  503                       
  504                   loopout:
  505                       
  506                   loopin:
  507                  	    mul $s5,$s7,10
  507                  		li	$at,10 
  507 004005f4 3401000a		ori	$at,$0,0x0A
  507 004005f8 02e10018		mult	$s7,$at 
  507 004005fc 0000a812		mflo	$s5 
  508 00400600 02b6c820	    add $t9,$s5,$s6
  509 00400604 02d77820	    add $t7,$s6,$s7
  510                  	    div $t4,$t7,$t5
  510 00400608 15a00002		bne	$t5,$0,08f 
  510 0040060c 00000000		nop 
  510 00400610 0000000d		break	 
  510 00400614 01ed001a	08:	div	$t7,$t5 
  510 00400618 00006012		mflo	$t4 
  511 0040061c 00006010	    mfhi $t4
  512                       
  513 00400620 11800002	    beqz $t4,white
  514                  	    beq  $t4,1,black
  514                  		li	$at,1 
  514 00400624 34010001		ori	$at,$0,0x01
  514 00400628 1181001f		beq	$t4,$at,black 
  515                       
  516                   white:
  517 0040062c 000a9080	    sll $s2,$t2,2
  518 00400630 02509020	    add $s2,$s2,$s0
  519 00400634 8e540000	    lw  $s4,0($s2)
  520                       
  521                  	    beq $s4,3,w
  521                  		li	$at,3 
  521 00400638 34010003		ori	$at,$0,0x03
  521 0040063c 1281000a		beq	$s4,$at,w 
  522                  	    beq $s4,1,r
  522                  		li	$at,1 
  522 00400640 34010001		ori	$at,$0,0x01
  522 00400644 1281000c		beq	$s4,$at,r 
  523                  	    beq $s4,7,bigW
  523                  		li	$at,7 
  523 00400648 34010007		ori	$at,$0,0x07
  523 0040064c 1281000e		beq	$s4,$at,bigW 
  524                  	    beq $s4,5,bigR
  524                  		li	$at,5 
  524 00400650 34010005		ori	$at,$0,0x05
  524 00400654 12810010		beq	$s4,$at,bigR 
  525                       
  526                       
  527                  	    la $a0,32
  527 00400658 3c040000		lui	$a0,0x00
  527 0040065c 34840020		ori	$a0,$a0,0x20
  528 00400660 000002cc	    syscall $print_char
  529 00400664 081001ad	    j increment
  530                       
  531                   w:
  532                  	    la $a0,119
  532 00400668 3c040000		lui	$a0,0x00
  532 0040066c 34840077		ori	$a0,$a0,0x77
  533 00400670 000002cc	    syscall $print_char
  534 00400674 081001ad	    j increment
  535                       
  536                   r:
  537                  	    la $a0,114
  537 00400678 3c040000		lui	$a0,0x00
  537 0040067c 34840072		ori	$a0,$a0,0x72
  538 00400680 000002cc	    syscall $print_char
  539 00400684 081001ad	    j increment
  540                       
  541                   bigW:
  542                  	    la $a0,87
  542 00400688 3c040000		lui	$a0,0x00
  542 0040068c 34840057		ori	$a0,$a0,0x57
  543 00400690 000002cc	    syscall $print_char
  544 00400694 081001ad	    j increment
  545                   
  546                   bigR:
  547                  	    la $a0,82
  547 00400698 3c040000		lui	$a0,0x00
  547 0040069c 34840052		ori	$a0,$a0,0x52
  548 004006a0 000002cc	    syscall $print_char
  549 004006a4 081001ad	    j increment
  550                       
  551                   black:
  552                  	    li $a0,219
  552 004006a8 340400db		ori	$a0,$0,0xDB
  553 004006ac 000002cc	    syscall $print_char
  554                   
  555 004006b0 081001ad	    j increment
  556                       
  557                   increment:
  558 004006b4 22d60001	    addi $s6,$s6,1
  559 004006b8 214a0001	    addi $t2,$t2,1
  560                       
  561                   loopintest:
  562                  	    blt $s6,$t8,loopin
  562 004006bc 02d8082a		slt	$at,$s6,$t8 
  562 004006c0 1420ffcc		bne	$at,$0,loopin 
  563                       
  564 004006c4 22f70001	    addi $s7,$s7,1
  565                       
  566                  	    la $a0,nl
  566 004006c8 3c041001		lui	$a0,0x1001
  566 004006cc 34840000		ori	$a0,$a0,0x00
  567 004006d0 0000010c	    syscall $print_string
  568                   
  569                   loopouttest:
  570 004006d4 22d8000a	    addi $t8,$s6,10
  571                  	    blt $s7,10,loopout
  571                  		li	$at,10 
  571 004006d8 3401000a		ori	$at,$0,0x0A
  571 004006dc 02e1082a		slt	$at,$s7,$at 
  571 004006e0 1420ffc4		bne	$at,$0,loopout 
  572                       
  573 004006e4 03e00008	    jr $ra
  574                   	
  575                   
  576                       
  577                   isLegalPosition:
  578                  		blt $a1,0,return
  578                  		li	$at,0 
  578 004006e8 34010000		ori	$at,$0,0x00
  578 004006ec 00a1082a		slt	$at,$a1,$at 
  578 004006f0 14200015		bne	$at,$0,return 
  579                  		blt $a2,0,return
  579                  		li	$at,0 
  579 004006f4 34010000		ori	$at,$0,0x00
  579 004006f8 00c1082a		slt	$at,$a2,$at 
  579 004006fc 14200012		bne	$at,$0,return 
  580                  		bgt $a1,9,return
  580                  		li	$at,9 
  580 00400700 34010009		ori	$at,$0,0x09
  580 00400704 0025082a		slt	$at,$at,$a1 
  580 00400708 1420000f		bne	$at,$0,return 
  581                  		bgt $a2,9,return
  581                  		li	$at,9 
  581 0040070c 34010009		ori	$at,$0,0x09
  581 00400710 0026082a		slt	$at,$at,$a2 
  581 00400714 1420000c		bne	$at,$0,return 
  582                   	
  583                  		li $t8,2
  583 00400718 34180002		ori	$t8,$0,0x02
  584                  		li $s4,9
  584 0040071c 34140009		ori	$s4,$0,0x09
  585                   	
  586 00400720 00a67820	    add $t7,$a1,$a2
  587                  		div $t7,$t7,$t8
  587 00400724 17000002		bne	$t8,$0,08f 
  587 00400728 00000000		nop 
  587 0040072c 0000000d		break	 
  587 00400730 01f8001a	08:	div	$t7,$t8 
  587 00400734 00007812		mflo	$t7 
  588 00400738 00007810		mfhi $t7
  589                   	
  590 0040073c 15e00002		bnez $t7,return
  591                   	
  592                  		li $v0,1
  592 00400740 34020001		ori	$v0,$0,0x01
  593 00400744 03e00008		jr $ra
  594                   return:
  595 00400748 00001021		mov  $v0,$zero
  596 0040074c 03e00008		jr $ra
  597                       
  598                   isValidJump:
  599 00400750 23bdfffc	    addi $sp,$sp,-4
  600 00400754 03a09821	    mov $s3,$sp
  601 00400758 ae7f0000	    sw $ra,0($s3)
  602                   	
  603 0040075c 8e25000c	    lw $a1,12($s1)
  604 00400760 8e260008	    lw $a2,8($s1)
  605                       
  606 00400764 0c1001ba	    jal isLegalPosition
  607                       
  608 00400768 10400072	    beqz $v0,returnjump
  609                       
  610 0040076c 00a06021	    mov $t4,$a1                 #t4 contains r1
  611 00400770 00c06821	    mov $t5,$a2                 #t5 contains c1
  612                       
  613 00400774 8e250004	    lw $a1,4($s1)
  614 00400778 8e260000	    lw $a2,0($s1)
  615                       
  616 0040077c 0c1001ba	    jal isLegalPosition
  617                       
  618 00400780 1040006c	    beqz $v0,returnjump
  619                       
  620 00400784 00a07021	    mov $t6,$a1                 #t6 contains r2
  621 00400788 00c07821	    mov $t7,$a2                 #t7 contains c2
  622                       
  623 0040078c 8e7f0000	    lw $ra,0($s3)
  624                   	
  625 00400790 018eb020	    add $s6,$t4,$t6
  626                  	    div $s6,2
  626                  		li	$at,2 
  626 00400794 34010002		ori	$at,$0,0x02
  626 00400798 02c1001a		div	$s6,$at 
  626 0040079c 0000b012		mflo	$s6 
  627 004007a0 0000b012	    mflo $s6                    #s6 contains rm
  628                       
  629 004007a4 01afb820	    add $s7,$t5,$t7                 
  630                  	    div $s7,2
  630                  		li	$at,2 
  630 004007a8 34010002		ori	$at,$0,0x02
  630 004007ac 02e1001a		div	$s7,$at 
  630 004007b0 0000b812		mflo	$s7 
  631 004007b4 0000b812	    mflo $s7                    #s7 contains cm
  632                       
  633                       #t0 = board[rm][cm]
  634                  	    mul $s6,$s6,10
  634                  		li	$at,10 
  634 004007b8 3401000a		ori	$at,$0,0x0A
  634 004007bc 02c10018		mult	$s6,$at 
  634 004007c0 0000b012		mflo	$s6 
  635 004007c4 02d7b020	    add $s6,$s6,$s7
  636 004007c8 0016b880	    sll $s7,$s6,2
  637 004007cc 02f0b820	    add $s7,$s7,$s0
  638 004007d0 8ee80000	    lw  $t0,0($s7)
  639                      
  640 004007d4 018ec022	    sub $t8,$t4,$t6
  641                  	    abs $s4,$t8
  641 004007d8 0018a021		addu	$s4,$0,$t8 
  641 004007dc 07010001		bgez	$t8,09f 
  641 004007e0 0018a022		sub	$s4,$0,$t8 
  641                   09: 
  642 004007e4 01afc822	    sub $t9,$t5,$t7
  643                  	    abs $s5,$t9
  643 004007e8 0019a821		addu	$s5,$0,$t9 
  643 004007ec 07210001		bgez	$t9,09f 
  643 004007f0 0019a822		sub	$s5,$0,$t9 
  643                   09: 
  644                     
  645                       #t1 = board[r1][c1]
  646                  	    mul $t4,$t4,10
  646                  		li	$at,10 
  646 004007f4 3401000a		ori	$at,$0,0x0A
  646 004007f8 01810018		mult	$t4,$at 
  646 004007fc 00006012		mflo	$t4 
  647 00400800 018d6020	    add $t4,$t4,$t5
  648 00400804 000c6880	    sll $t5,$t4,2
  649 00400808 01b06820	    add $t5,$t5,$s0
  650 0040080c 8da90000	    lw  $t1,0($t5)
  651                       
  652                       
  653                       #t2 = board[r2][c2]
  654                  	    mul $t6,$t6,10
  654                  		li	$at,10 
  654 00400810 3401000a		ori	$at,$0,0x0A
  654 00400814 01c10018		mult	$t6,$at 
  654 00400818 00007012		mflo	$t6 
  655 0040081c 01cf7020	    add $t6,$t6,$t7
  656 00400820 000e7880	    sll $t7,$t6,2
  657 00400824 01f07820	    add $t7,$t7,$s0
  658 00400828 8dea0000	    lw  $t2,0($t7)
  659                       
  660                       
  661                  	    beq $t1,1,redgamepiece
  661                  		li	$at,1 
  661 0040082c 34010001		ori	$at,$0,0x01
  661 00400830 11210008		beq	$t1,$at,redgamepiece 
  662                  	    beq $t1,3,whitegamepiece
  662                  		li	$at,3 
  662 00400834 34010003		ori	$at,$0,0x03
  662 00400838 11210022		beq	$t1,$at,whitegamepiece 
  663                  	    beq $t1,5,redking
  663                  		li	$at,5 
  663 0040083c 34010005		ori	$at,$0,0x05
  663 00400840 11210012		beq	$t1,$at,redking 
  664                  	    beq $t1,7,whiteking
  664                  		li	$at,7 
  664 00400844 34010007		ori	$at,$0,0x07
  664 00400848 1121002c		beq	$t1,$at,whiteking 
  665                  	    beq $t1,0,returnjump
  665                  		li	$at,0 
  665 0040084c 34010000		ori	$at,$0,0x00
  665 00400850 11210038		beq	$t1,$at,returnjump 
  666                       
  667                   redgamepiece:
  668                  	    bne $t8,-2,returnjump
  668                  		li	$at,-2 
  668 00400854 2001fffe		addi	$at,$0,0xFFFE
  668 00400858 17010036		bne	$t8,$at,returnjump 
  669                  	    bne $s5,2,returnjump
  669                  		li	$at,2 
  669 0040085c 34010002		ori	$at,$0,0x02
  669 00400860 16a10034		bne	$s5,$at,returnjump 
  670                  	    bne $t2,0,returnjump
  670                  		li	$at,0 
  670 00400864 34010000		ori	$at,$0,0x00
  670 00400868 15410032		bne	$t2,$at,returnjump 
  671                  	    beq $t0,1,returnjump
  671                  		li	$at,1 
  671 0040086c 34010001		ori	$at,$0,0x01
  671 00400870 11010030		beq	$t0,$at,returnjump 
  672                  	    beq $t0,5,returnjump
  672                  		li	$at,5 
  672 00400874 34010005		ori	$at,$0,0x05
  672 00400878 1101002e		beq	$t0,$at,returnjump 
  673                  	    beq $t0,0,returnjump
  673                  		li	$at,0 
  673 0040087c 34010000		ori	$at,$0,0x00
  673 00400880 1101002c		beq	$t0,$at,returnjump 
  674                       
  675                  	    li $v0,1
  675 00400884 34020001		ori	$v0,$0,0x01
  676                       
  677 00400888 03e00008	    jr $ra
  678                   
  679                   redking:
  680                   	
  681                  	    bne $s4,2,returnjump
  681                  		li	$at,2 
  681 0040088c 34010002		ori	$at,$0,0x02
  681 00400890 16810028		bne	$s4,$at,returnjump 
  682                  	    bne $s5,2,returnjump
  682                  		li	$at,2 
  682 00400894 34010002		ori	$at,$0,0x02
  682 00400898 16a10026		bne	$s5,$at,returnjump 
  683                  	    bne $t2,0,returnjump
  683                  		li	$at,0 
  683 0040089c 34010000		ori	$at,$0,0x00
  683 004008a0 15410024		bne	$t2,$at,returnjump 
  684                  	    beq $t0,1,returnjump
  684                  		li	$at,1 
  684 004008a4 34010001		ori	$at,$0,0x01
  684 004008a8 11010022		beq	$t0,$at,returnjump 
  685                  	    beq $t0,5,returnjump
  685                  		li	$at,5 
  685 004008ac 34010005		ori	$at,$0,0x05
  685 004008b0 11010020		beq	$t0,$at,returnjump 
  686                  	    beq $t0,0,returnjump
  686                  		li	$at,0 
  686 004008b4 34010000		ori	$at,$0,0x00
  686 004008b8 1101001e		beq	$t0,$at,returnjump 
  687                       
  688                  	    li $v0,1
  688 004008bc 34020001		ori	$v0,$0,0x01
  689                       
  690 004008c0 03e00008	    jr $ra
  691                       
  692                   whitegamepiece:
  693                  	    bne $t8,2,returnjump
  693                  		li	$at,2 
  693 004008c4 34010002		ori	$at,$0,0x02
  693 004008c8 1701001a		bne	$t8,$at,returnjump 
  694                  	    bne $s5,2,returnjump
  694                  		li	$at,2 
  694 004008cc 34010002		ori	$at,$0,0x02
  694 004008d0 16a10018		bne	$s5,$at,returnjump 
  695                  	    bne $t2,0,returnjump
  695                  		li	$at,0 
  695 004008d4 34010000		ori	$at,$0,0x00
  695 004008d8 15410016		bne	$t2,$at,returnjump 
  696                  	    beq $t0,3,returnjump
  696                  		li	$at,3 
  696 004008dc 34010003		ori	$at,$0,0x03
  696 004008e0 11010014		beq	$t0,$at,returnjump 
  697                  	    beq $t0,7,returnjump
  697                  		li	$at,7 
  697 004008e4 34010007		ori	$at,$0,0x07
  697 004008e8 11010012		beq	$t0,$at,returnjump 
  698                  	    beq $t0,0,returnjump    
  698                  		li	$at,0 
  698 004008ec 34010000		ori	$at,$0,0x00
  698 004008f0 11010010		beq	$t0,$at,returnjump 
  699                       
  700                  	    li $v0,1
  700 004008f4 34020001		ori	$v0,$0,0x01
  701                       
  702 004008f8 03e00008	    jr $ra
  703                       
  704                   whiteking:
  705                  	    bne $s4,2,returnjump
  705                  		li	$at,2 
  705 004008fc 34010002		ori	$at,$0,0x02
  705 00400900 1681000c		bne	$s4,$at,returnjump 
  706                  	    bne $s5,2,returnjump
  706                  		li	$at,2 
  706 00400904 34010002		ori	$at,$0,0x02
  706 00400908 16a1000a		bne	$s5,$at,returnjump 
  707                  	    bne $t2,0,returnjump
  707                  		li	$at,0 
  707 0040090c 34010000		ori	$at,$0,0x00
  707 00400910 15410008		bne	$t2,$at,returnjump 
  708                  	    beq $t0,3,returnjump
  708                  		li	$at,3 
  708 00400914 34010003		ori	$at,$0,0x03
  708 00400918 11010006		beq	$t0,$at,returnjump 
  709                  	    beq $t0,7,returnjump
  709                  		li	$at,7 
  709 0040091c 34010007		ori	$at,$0,0x07
  709 00400920 11010004		beq	$t0,$at,returnjump 
  710                  	    beq $t0,0,returnjump
  710                  		li	$at,0 
  710 00400924 34010000		ori	$at,$0,0x00
  710 00400928 11010002		beq	$t0,$at,returnjump 
  711                       
  712                  	    li $v0,1
  712 0040092c 34020001		ori	$v0,$0,0x01
  713                       
  714 00400930 03e00008	    jr $ra 
  715                       
  716                   returnjump:
  717 00400934 8e7f0000	    lw $ra,0($s3)
  718 00400938 00001021	    mov $v0,$zero
  719 0040093c 03e00008	    jr $ra
  720                       
  721                   checkforking:
  722                       #currcolor = a0, r2 = a1
  723                  	    beq $a0,1,checkforwhiteking
  723                  		li	$at,1 
  723 00400940 34010001		ori	$at,$0,0x01
  723 00400944 10810003		beq	$a0,$at,checkforwhiteking 
  724                  	    beq $a0,0,checkforredking
  724                  		li	$at,0 
  724 00400948 34010000		ori	$at,$0,0x00
  724 0040094c 10810010		beq	$a0,$at,checkforredking 
  725                       
  726 00400950 03e00008	    jr $ra
  727                       
  728                   checkforwhiteking:
  729                  	    beq $a1,0,promotewhite
  729                  		li	$at,0 
  729 00400954 34010000		ori	$at,$0,0x00
  729 00400958 10a10001		beq	$a1,$at,promotewhite 
  730 0040095c 03e00008	    jr $ra
  731                       
  732                   promotewhite:
  733                  	    li $s5,7
  733 00400960 34150007		ori	$s5,$0,0x07
  734 00400964 8e260000	    lw $a2,0($s1)
  735                  	    mul $a1,$a1,10
  735                  		li	$at,10 
  735 00400968 3401000a		ori	$at,$0,0x0A
  735 0040096c 00a10018		mult	$a1,$at 
  735 00400970 00002812		mflo	$a1 
  736 00400974 00a62820	    add $a1,$a1,$a2
  737                  	    mul $a1,$a1,4
  737                  		li	$at,4 
  737 00400978 34010004		ori	$at,$0,0x04
  737 0040097c 00a10018		mult	$a1,$at 
  737 00400980 00002812		mflo	$a1 
  738 00400984 00b02820	    add $a1,$a1,$s0
  739                       
  740 00400988 acb50000	    sw $s5,0($a1)
  741                       
  742 0040098c 03e00008	    jr $ra
  743                       
  744                   checkforredking:
  745                  	    beq $a1,9,promotered
  745                  		li	$at,9 
  745 00400990 34010009		ori	$at,$0,0x09
  745 00400994 10a10001		beq	$a1,$at,promotered 
  746 00400998 03e00008	    jr $ra
  747                   
  748                   promotered:
  749                  	    li $s5,5
  749 0040099c 34150005		ori	$s5,$0,0x05
  750 004009a0 8e260000	    lw $a2,0($s1)
  751                  	    mul $a1,$a1,10
  751                  		li	$at,10 
  751 004009a4 3401000a		ori	$at,$0,0x0A
  751 004009a8 00a10018		mult	$a1,$at 
  751 004009ac 00002812		mflo	$a1 
  752 004009b0 00a62820	    add $a1,$a1,$a2
  753                  	    mul $a1,$a1,4
  753                  		li	$at,4 
  753 004009b4 34010004		ori	$at,$0,0x04
  753 004009b8 00a10018		mult	$a1,$at 
  753 004009bc 00002812		mflo	$a1 
  754 004009c0 00b02820	    add $a1,$a1,$s0
  755                       
  756 004009c4 acb50000	    sw $s5,0($a1)
  757                       
  758 004009c8 03e00008	    jr $ra
  759                       
  760                   printexit:
  761                  	    la $a0,ex
  761 004009cc 3c041001		lui	$a0,0x1001
  761 004009d0 3484006c		ori	$a0,$a0,0x6C
  762 004009d4 0000010c	    syscall $print_string
  763                  	    la $a0,nl
  763 004009d8 3c041001		lui	$a0,0x1001
  763 004009dc 34840000		ori	$a0,$a0,0x00
  764 004009e0 0000010c	    syscall $print_string
  765                       
  766                       
  767                   isValidMove:
  768 004009e4 23bdfffc	    addi $sp,$sp,-4
  769 004009e8 03a09821	    mov $s3,$sp
  770 004009ec ae7f0000	    sw $ra,0($s3)
  771                       
  772 004009f0 8e25000c	    lw $a1,12($s1)
  773 004009f4 8e260008	    lw $a2,8($s1)
  774                       
  775 004009f8 0c1001ba	    jal isLegalPosition
  776                       
  777 004009fc 10400049	    beqz $v0,returnmove
  778                       
  779 00400a00 00a06021	    mov $t4,$a1                 #t4 contains r1
  780 00400a04 00c06821	    mov $t5,$a2                 #t5 contains c1
  781                       
  782 00400a08 8e250004	    lw $a1,4($s1)
  783 00400a0c 8e260000	    lw $a2,0($s1)
  784                       
  785 00400a10 0c1001ba	    jal isLegalPosition
  786                       
  787 00400a14 10400043	    beqz $v0,returnmove
  788                       
  789 00400a18 00a07021	    mov $t6,$a1                 #t6 contains r2
  790 00400a1c 00c07821	    mov $t7,$a2                 #t7 contains c2
  791                       
  792 00400a20 8e7f0000	    lw $ra,0($s3)
  793                       
  794 00400a24 018ec022	    sub $t8,$t4,$t6
  795                  	    abs $s4,$t8
  795 00400a28 0018a021		addu	$s4,$0,$t8 
  795 00400a2c 07010001		bgez	$t8,09f 
  795 00400a30 0018a022		sub	$s4,$0,$t8 
  795                   09: 
  796 00400a34 01afc822	    sub $t9,$t5,$t7
  797                  	    abs $s5,$t9
  797 00400a38 0019a821		addu	$s5,$0,$t9 
  797 00400a3c 07210001		bgez	$t9,09f 
  797 00400a40 0019a822		sub	$s5,$0,$t9 
  797                   09: 
  798                     
  799                       #t1 = boeard[r1][c1]
  800                  	    mul $t4,$t4,10
  800                  		li	$at,10 
  800 00400a44 3401000a		ori	$at,$0,0x0A
  800 00400a48 01810018		mult	$t4,$at 
  800 00400a4c 00006012		mflo	$t4 
  801 00400a50 018d6020	    add $t4,$t4,$t5
  802 00400a54 000c6880	    sll $t5,$t4,2
  803 00400a58 01b06820	    add $t5,$t5,$s0
  804 00400a5c 8da90000	    lw  $t1,0($t5)
  805                      
  806                       
  807                       #t2 = board[r2][c2]
  808                  	    mul $t6,$t6,10
  808                  		li	$at,10 
  808 00400a60 3401000a		ori	$at,$0,0x0A
  808 00400a64 01c10018		mult	$t6,$at 
  808 00400a68 00007012		mflo	$t6 
  809 00400a6c 01cf7020	    add $t6,$t6,$t7
  810 00400a70 000e7880	    sll $t7,$t6,2
  811 00400a74 01f07820	    add $t7,$t7,$s0
  812 00400a78 8dea0000	    lw  $t2,0($t7)
  813                      
  814                       
  815                  	    beq $t1,1,rgp
  815                  		li	$at,1 
  815 00400a7c 34010001		ori	$at,$0,0x01
  815 00400a80 11210008		beq	$t1,$at,rgp 
  816                  	    beq $t1,3,wgp
  816                  		li	$at,3 
  816 00400a84 34010003		ori	$at,$0,0x03
  816 00400a88 11210016		beq	$t1,$at,wgp 
  817                  	    beq $t1,5,rking
  817                  		li	$at,5 
  817 00400a8c 34010005		ori	$at,$0,0x05
  817 00400a90 1121000c		beq	$t1,$at,rking 
  818                  	    beq $t1,7,wking
  818                  		li	$at,7 
  818 00400a94 34010007		ori	$at,$0,0x07
  818 00400a98 1121001a		beq	$t1,$at,wking 
  819                  	    beq $t1,0,returnmove
  819                  		li	$at,0 
  819 00400a9c 34010000		ori	$at,$0,0x00
  819 00400aa0 11210020		beq	$t1,$at,returnmove 
  820                       
  821                   rgp:
  822                  	    bne $t8,-1,returnmove
  822                  		li	$at,-1 
  822 00400aa4 2001ffff		addi	$at,$0,0xFFFF
  822 00400aa8 1701001e		bne	$t8,$at,returnmove 
  823                  	    bne $s5,1,returnmove
  823                  		li	$at,1 
  823 00400aac 34010001		ori	$at,$0,0x01
  823 00400ab0 16a1001c		bne	$s5,$at,returnmove 
  824                  	    bne $t2,0,returnmove
  824                  		li	$at,0 
  824 00400ab4 34010000		ori	$at,$0,0x00
  824 00400ab8 1541001a		bne	$t2,$at,returnmove 
  825                       
  826                  	    li $v0,1
  826 00400abc 34020001		ori	$v0,$0,0x01
  827                       
  828 00400ac0 03e00008	    jr $ra
  829                   
  830                   rking:
  831                  	    bne $s4,1,returnmove
  831                  		li	$at,1 
  831 00400ac4 34010001		ori	$at,$0,0x01
  831 00400ac8 16810016		bne	$s4,$at,returnmove 
  832                  	    bne $s5,1,returnmove
  832                  		li	$at,1 
  832 00400acc 34010001		ori	$at,$0,0x01
  832 00400ad0 16a10014		bne	$s5,$at,returnmove 
  833                  	    bne $t2,0,returnmove
  833                  		li	$at,0 
  833 00400ad4 34010000		ori	$at,$0,0x00
  833 00400ad8 15410012		bne	$t2,$at,returnmove 
  834                       
  835                  	    li $v0,1
  835 00400adc 34020001		ori	$v0,$0,0x01
  836                       
  837 00400ae0 03e00008	    jr $ra
  838                       
  839                   wgp:
  840                  	    bne $t8,1,returnmove
  840                  		li	$at,1 
  840 00400ae4 34010001		ori	$at,$0,0x01
  840 00400ae8 1701000e		bne	$t8,$at,returnmove 
  841                  	    bne $s5,1,returnmove
  841                  		li	$at,1 
  841 00400aec 34010001		ori	$at,$0,0x01
  841 00400af0 16a1000c		bne	$s5,$at,returnmove 
  842                  	    bne $t2,0,returnmove
  842                  		li	$at,0 
  842 00400af4 34010000		ori	$at,$0,0x00
  842 00400af8 1541000a		bne	$t2,$at,returnmove 
  843                       
  844                  	    li $v0,1
  844 00400afc 34020001		ori	$v0,$0,0x01
  845                       
  846 00400b00 03e00008	    jr $ra
  847                       
  848                   wking:
  849                  	    bne $s4,1,returnmove
  849                  		li	$at,1 
  849 00400b04 34010001		ori	$at,$0,0x01
  849 00400b08 16810006		bne	$s4,$at,returnmove 
  850                  	    bne $s5,1,returnmove
  850                  		li	$at,1 
  850 00400b0c 34010001		ori	$at,$0,0x01
  850 00400b10 16a10004		bne	$s5,$at,returnmove 
  851                  	    bne $t2,0,returnmove
  851                  		li	$at,0 
  851 00400b14 34010000		ori	$at,$0,0x00
  851 00400b18 15410002		bne	$t2,$at,returnmove 
  852                       
  853                  	    li $v0,1
  853 00400b1c 34020001		ori	$v0,$0,0x01
  854                       
  855 00400b20 03e00008	    jr $ra 
  856                       
  857                   returnmove:
  858 00400b24 8e7f0000	    lw $ra,0($s3)
  859 00400b28 00001021	    mov $v0,$zero
  860 00400b2c 03e00008	    jr $ra
  861                   
  862                   err:
  863                  	    la $a0,erm
  863 00400b30 3c041001		lui	$a0,0x1001
  863 00400b34 34840074		ori	$a0,$a0,0x74
  864 00400b38 0000010c	    syscall $print_string
  865                  	    la $a0,nl
  865 00400b3c 3c041001		lui	$a0,0x1001
  865 00400b40 34840000		ori	$a0,$a0,0x00
  866 00400b44 0000010c	    syscall $print_string
  867                       
  868 00400b48 08100062	    j mainloop
  869                       
  870                   getvalidmoves:
  871 00400b4c 23bdfffc	    addi $sp,$sp,-4
  872 00400b50 afbf0000	    sw $ra,0($sp)
  873 00400b54 03a03821	    mov $a3,$sp
  874                       
  875 00400b58 00004021	    mov $t0,$zero               #t0 = r1
  876                  	    li  $t1,-1                  #t1 = r2
  876 00400b5c 2009ffff		addi	$t1,$0,0xFFFF
  877 00400b60 00005021	    mov $t2,$zero               #t2 = c1
  878                  	    li  $t3,-1                  #t3 = c2
  878 00400b64 200bffff		addi	$t3,$0,0xFFFF
  879 00400b68 00006021	    mov $t4,$zero               #t4 = total
  880                       
  881                  	    li $t5,0                    #t5 = idxr1
  881 00400b6c 340d0000		ori	$t5,$0,0x00
  882                  	    li $t6,0                    #t6 = idxc1
  882 00400b70 340e0000		ori	$t6,$0,0x00
  883                       #li $t8,1
  884                       
  885 00400b74 0810033c	    j forloop1test
  886                       
  887                   forloop1:
  888 00400b78 00005021	    mov $t2,$zero
  889                       
  890 00400b7c 08100338	    j forloop2test
  891                       
  892                   forloop2:
  893 00400b80 21160001	    addi $s6,$t0,1
  894                      
  895 00400b84 2109ffff	    addi $t1,$t0,-1
  896 00400b88 0340c021	    mov $t8,$k0
  897                  	    mul $t7,$t0,10
  897                  		li	$at,10 
  897 00400b8c 3401000a		ori	$at,$0,0x0A
  897 00400b90 01010018		mult	$t0,$at 
  897 00400b94 00007812		mflo	$t7 
  898 00400b98 01ea7820	    add $t7,$t7,$t2
  899                  	    mul $t7,$t7,4
  899                  		li	$at,4 
  899 00400b9c 34010004		ori	$at,$0,0x04
  899 00400ba0 01e10018		mult	$t7,$at 
  899 00400ba4 00007812		mflo	$t7 
  900 00400ba8 01f07820	    add $t7,$t7,$s0
  901 00400bac 8def0000	    lw $t7,0($t7)
  902                       
  903                  	    beq $t8,0,checkforred
  903                  		li	$at,0 
  903 00400bb0 34010000		ori	$at,$0,0x00
  903 00400bb4 13010002		beq	$t8,$at,checkforred 
  904                  	    beq $t8,1,checkforwhite
  904                  		li	$at,1 
  904 00400bb8 34010001		ori	$at,$0,0x01
  904 00400bbc 13010005		beq	$t8,$at,checkforwhite 
  905                       
  906                       
  907                   checkforred:
  908                  	    beq $t7,1,forloop3test
  908                  		li	$at,1 
  908 00400bc0 34010001		ori	$at,$0,0x01
  908 00400bc4 11e10043		beq	$t7,$at,forloop3test 
  909                  	    beq $t7,5,forloop3test
  909                  		li	$at,5 
  909 00400bc8 34010005		ori	$at,$0,0x05
  909 00400bcc 11e10041		beq	$t7,$at,forloop3test 
  910                       
  911 00400bd0 08100337	    j addtoforloop2
  912                       
  913                   checkforwhite:
  914                  	    beq $t7,3,forloop3test
  914                  		li	$at,3 
  914 00400bd4 34010003		ori	$at,$0,0x03
  914 00400bd8 11e1003e		beq	$t7,$at,forloop3test 
  915                  	    beq $t7,7,forloop3test
  915                  		li	$at,7 
  915 00400bdc 34010007		ori	$at,$0,0x07
  915 00400be0 11e1003c		beq	$t7,$at,forloop3test 
  916                       
  917 00400be4 08100337	    j addtoforloop2
  918                       
  919                   forloop3:
  920 00400be8 214bffff	    addi $t3,$t2,-1
  921 00400bec 21520001	    addi $s2,$t2,1
  922                       
  923                       
  924                       
  925 00400bf0 08100332	    j forloop4test
  926                   
  927                   forloop4:
  928                   
  929                      
  930                   
  931 00400bf4 ae28000c	   sw $t0,12($s1)
  932 00400bf8 ae2a0008	   sw $t2,8($s1)
  933 00400bfc ae290004	   sw $t1,4($s1)
  934 00400c00 ae2b0000	   sw $t3,0($s1)
  935 00400c04 ae2c0010	   sw $t4,16($s1)
  936                     
  937 00400c08 0c100279	   jal isValidMove
  938                      
  939 00400c0c 8e28000c	   lw $t0,12($s1)
  940 00400c10 8e2a0008	   lw $t2,8($s1)
  941 00400c14 8e290004	   lw $t1,4($s1)
  942 00400c18 8e2b0000	   lw $t3,0($s1)
  943 00400c1c 8e2c0010	   lw $t4,16($s1)
  944                    
  945                  	   beq $v0,1,into
  945                  		li	$at,1 
  945 00400c20 34010001		ori	$at,$0,0x01
  945 00400c24 10410001		beq	$v0,$at,into 
  946 00400c28 08100331	   j nextloop4
  947                   
  948                   into:
  949                   
  950                  	    mul $t5,$t4,4
  950                  		li	$at,4 
  950 00400c2c 34010004		ori	$at,$0,0x04
  950 00400c30 01810018		mult	$t4,$at 
  950 00400c34 00006812		mflo	$t5 
  951                       
  952                  	    mul $t5,$t5,4
  952                  		li	$at,4 
  952 00400c38 34010004		ori	$at,$0,0x04
  952 00400c3c 01a10018		mult	$t5,$at 
  952 00400c40 00006812		mflo	$t5 
  953                       
  954 00400c44 01be7020	    add $t6,$t5,$fp
  955 00400c48 adc80000	    sw $t0,0($t6)
  956                       
  957                  	    mul $t5,$t4,4
  957                  		li	$at,4 
  957 00400c4c 34010004		ori	$at,$0,0x04
  957 00400c50 01810018		mult	$t4,$at 
  957 00400c54 00006812		mflo	$t5 
  958 00400c58 21ad0001	    addi $t5,$t5,1
  959                       
  960                  	    mul $t5,$t5,4
  960                  		li	$at,4 
  960 00400c5c 34010004		ori	$at,$0,0x04
  960 00400c60 01a10018		mult	$t5,$at 
  960 00400c64 00006812		mflo	$t5 
  961                       
  962 00400c68 01be7020	    add $t6,$t5,$fp
  963 00400c6c adca0000	    sw $t2,0($t6)
  964                       
  965                  	    mul $t5,$t4,4
  965                  		li	$at,4 
  965 00400c70 34010004		ori	$at,$0,0x04
  965 00400c74 01810018		mult	$t4,$at 
  965 00400c78 00006812		mflo	$t5 
  966 00400c7c 21ad0002	    addi $t5,$t5,2
  967                       
  968                  	    mul $t5,$t5,4
  968                  		li	$at,4 
  968 00400c80 34010004		ori	$at,$0,0x04
  968 00400c84 01a10018		mult	$t5,$at 
  968 00400c88 00006812		mflo	$t5 
  969                       
  970 00400c8c 01be7020	    add $t6,$t5,$fp
  971 00400c90 adc90000	    sw $t1,0($t6)
  972                       
  973                  	    mul $t5,$t4,4
  973                  		li	$at,4 
  973 00400c94 34010004		ori	$at,$0,0x04
  973 00400c98 01810018		mult	$t4,$at 
  973 00400c9c 00006812		mflo	$t5 
  974 00400ca0 21ad0003	    addi $t5,$t5,3
  975                       
  976                  	    mul $t5,$t5,4
  976                  		li	$at,4 
  976 00400ca4 34010004		ori	$at,$0,0x04
  976 00400ca8 01a10018		mult	$t5,$at 
  976 00400cac 00006812		mflo	$t5 
  977                       
  978 00400cb0 01be7020	    add $t6,$t5,$fp
  979 00400cb4 adcb0000	    sw $t3,0($t6)
  980                       
  981 00400cb8 218c0001	    addi $t4,$t4,1
  982                       
  983                  	    beq $t4,24,returnfunc
  983                  		li	$at,24 
  983 00400cbc 34010018		ori	$at,$0,0x18
  983 00400cc0 1181000e		beq	$t4,$at,returnfunc 
  984                       
  985                   nextloop4:
  986 00400cc4 216b0002	     addi $t3,$t3,2
  987                       
  988                   forloop4test:
  989                  	    ble $t3,$s2,forloop4
  989 00400cc8 024b082a		slt	$at,$s2,$t3 
  989 00400ccc 1020ffc9		beq	$at,$0,forloop4 
  990                       
  991 00400cd0 21290002	    addi $t1,$t1,2
  992                       
  993                   forloop3test:
  994                  	    ble $t1,$s6,forloop3
  994 00400cd4 02c9082a		slt	$at,$s6,$t1 
  994 00400cd8 1020ffc3		beq	$at,$0,forloop3 
  995                       
  996                   addtoforloop2:    
  997 00400cdc 214a0001	    addi $t2,$t2,1
  998                       
  999                   forloop2test:
 1000                  	    blt $t2,10,forloop2
 1000                  		li	$at,10 
 1000 00400ce0 3401000a		ori	$at,$0,0x0A
 1000 00400ce4 0141082a		slt	$at,$t2,$at 
 1000 00400ce8 1420ffa5		bne	$at,$0,forloop2 
 1001                       
 1002                       
 1003 00400cec 21080001	    addi $t0,$t0,1
 1004                       
 1005                   forloop1test:
 1006                  	    blt $t0,10,forloop1
 1006                  		li	$at,10 
 1006 00400cf0 3401000a		ori	$at,$0,0x0A
 1006 00400cf4 0101082a		slt	$at,$t0,$at 
 1006 00400cf8 1420ff9f		bne	$at,$0,forloop1 
 1007                       
 1008                   returnfunc:
 1009 00400cfc 01801021	    mov $v0,$t4
 1010                       
 1011 00400d00 8cff0000	    lw $ra,0($a3)
 1012 00400d04 03e00008	    jr $ra
 1013                   
 1014                   
 1015                       
 1016                   printtuples:
 1017 00400d08 0000b821	    mov $s7,$zero
 1018 00400d0c 08100374	    j forlooptest
 1019                       
 1020                   forloop:
 1021 00400d10 02e02021	    mov $a0,$s7
 1022 00400d14 0000004c	    syscall $print_int
 1023                       
 1024                  	    la $a0,tb
 1024 00400d18 3c041001		lui	$a0,0x1001
 1024 00400d1c 348400a7		ori	$a0,$a0,0xA7
 1025 00400d20 0000010c	    syscall $print_string
 1026                       
 1027                  	    mul $t5,$s7,4
 1027                  		li	$at,4 
 1027 00400d24 34010004		ori	$at,$0,0x04
 1027 00400d28 02e10018		mult	$s7,$at 
 1027 00400d2c 00006812		mflo	$t5 
 1028                       
 1029                  	    mul $t5,$t5,4
 1029                  		li	$at,4 
 1029 00400d30 34010004		ori	$at,$0,0x04
 1029 00400d34 01a10018		mult	$t5,$at 
 1029 00400d38 00006812		mflo	$t5 
 1030                       
 1031 00400d3c 01be7020	    add $t6,$t5,$fp
 1032 00400d40 8dc40000	    lw $a0,0($t6)
 1033                       
 1034 00400d44 0000004c	    syscall $print_int
 1035                       
 1036                  	    mul $t5,$s7,4
 1036                  		li	$at,4 
 1036 00400d48 34010004		ori	$at,$0,0x04
 1036 00400d4c 02e10018		mult	$s7,$at 
 1036 00400d50 00006812		mflo	$t5 
 1037 00400d54 21ad0001	    addi $t5,$t5,1
 1038                       
 1039                  	    mul $t5,$t5,4
 1039                  		li	$at,4 
 1039 00400d58 34010004		ori	$at,$0,0x04
 1039 00400d5c 01a10018		mult	$t5,$at 
 1039 00400d60 00006812		mflo	$t5 
 1040                       
 1041 00400d64 01be7020	    add $t6,$t5,$fp
 1042 00400d68 8dc40000	    lw $a0,0($t6)
 1043                       
 1044 00400d6c 0000004c	    syscall $print_int
 1045                       
 1046                  	    mul $t5,$s7,4
 1046                  		li	$at,4 
 1046 00400d70 34010004		ori	$at,$0,0x04
 1046 00400d74 02e10018		mult	$s7,$at 
 1046 00400d78 00006812		mflo	$t5 
 1047 00400d7c 21ad0002	    addi $t5,$t5,2
 1048                       
 1049                  	    mul $t5,$t5,4
 1049                  		li	$at,4 
 1049 00400d80 34010004		ori	$at,$0,0x04
 1049 00400d84 01a10018		mult	$t5,$at 
 1049 00400d88 00006812		mflo	$t5 
 1050                       
 1051 00400d8c 01be7020	    add $t6,$t5,$fp
 1052 00400d90 8dc40000	    lw $a0,0($t6)
 1053                       
 1054 00400d94 0000004c	    syscall $print_int
 1055                       
 1056                  	    mul $t5,$s7,4
 1056                  		li	$at,4 
 1056 00400d98 34010004		ori	$at,$0,0x04
 1056 00400d9c 02e10018		mult	$s7,$at 
 1056 00400da0 00006812		mflo	$t5 
 1057 00400da4 21ad0003	    addi $t5,$t5,3
 1058                       
 1059                  	    mul $t5,$t5,4
 1059                  		li	$at,4 
 1059 00400da8 34010004		ori	$at,$0,0x04
 1059 00400dac 01a10018		mult	$t5,$at 
 1059 00400db0 00006812		mflo	$t5 
 1060                       
 1061 00400db4 01be7020	    add $t6,$t5,$fp
 1062 00400db8 8dc40000	    lw $a0,0($t6)
 1063                       
 1064 00400dbc 0000004c	    syscall $print_int
 1065                       
 1066                  	    la $a0,nl
 1066 00400dc0 3c041001		lui	$a0,0x1001
 1066 00400dc4 34840000		ori	$a0,$a0,0x00
 1067 00400dc8 0000010c	    syscall $print_string
 1068                       
 1069 00400dcc 22f70001	    addi $s7,$s7,1
 1070                   forlooptest:
 1071                  	    blt $s7,$t4,forloop
 1071 00400dd0 02ec082a		slt	$at,$s7,$t4 
 1071 00400dd4 1420ffce		bne	$at,$0,forloop 
 1072                       
 1073 00400dd8 03e00008	    jr $ra
 1074                       
 1075                   getvalidjumps:
 1076                   
 1077 00400ddc 23bdfffc	    addi $sp,$sp,-4
 1078 00400de0 afbf0000	    sw $ra,0($sp)
 1079 00400de4 03a03821	    mov $a3,$sp
 1080                      
 1081 00400de8 00004021	    mov $t0,$zero               #t0 = r1
 1082                  	    li  $t1,-1                  #t1 = r2
 1082 00400dec 2009ffff		addi	$t1,$0,0xFFFF
 1083 00400df0 00005021	    mov $t2,$zero               #t2 = c1
 1084                  	    li  $t3,-1                  #t3 = c2
 1084 00400df4 200bffff		addi	$t3,$0,0xFFFF
 1085 00400df8 00006021	    mov $t4,$zero               #t4 = total
 1086                       
 1087                  	    li $t5,0                    #t5 = idxr1
 1087 00400dfc 340d0000		ori	$t5,$0,0x00
 1088                  	    li $t6,0                    #t6 = idxc1
 1088 00400e00 340e0000		ori	$t6,$0,0x00
 1089                    
 1090                       
 1091 00400e04 081003e1	    j fl1test
 1092                       
 1093                   fl1:
 1094 00400e08 00005021	    mov $t2,$zero
 1095                       
 1096 00400e0c 081003dd	    j fl2test
 1097                       
 1098                   fl2:
 1099 00400e10 214bfffe	    addi $t3,$t2,-2
 1100 00400e14 21160002	    addi $s6,$t0,2
 1101 00400e18 2109fffe	    addi $t1,$t0,-2
 1102 00400e1c 0340c021	    mov $t8,$k0
 1103                  	    mul $t7,$t0,10
 1103                  		li	$at,10 
 1103 00400e20 3401000a		ori	$at,$0,0x0A
 1103 00400e24 01010018		mult	$t0,$at 
 1103 00400e28 00007812		mflo	$t7 
 1104 00400e2c 01ea7820	    add $t7,$t7,$t2
 1105                  	    mul $t7,$t7,4
 1105                  		li	$at,4 
 1105 00400e30 34010004		ori	$at,$0,0x04
 1105 00400e34 01e10018		mult	$t7,$at 
 1105 00400e38 00007812		mflo	$t7 
 1106 00400e3c 01f07820	    add $t7,$t7,$s0
 1107 00400e40 8def0000	    lw $t7,0($t7)
 1108                       
 1109                  	    beq $t8,0,cfred
 1109                  		li	$at,0 
 1109 00400e44 34010000		ori	$at,$0,0x00
 1109 00400e48 13010002		beq	$t8,$at,cfred 
 1110                  	    beq $t8,1,cfwhite
 1110                  		li	$at,1 
 1110 00400e4c 34010001		ori	$at,$0,0x01
 1110 00400e50 13010005		beq	$t8,$at,cfwhite 
 1111                       
 1112                       
 1113                   cfred:
 1114                  	    beq $t7,1,fl3test
 1114                  		li	$at,1 
 1114 00400e54 34010001		ori	$at,$0,0x01
 1114 00400e58 11e10043		beq	$t7,$at,fl3test 
 1115                  	    beq $t7,5,fl3test
 1115                  		li	$at,5 
 1115 00400e5c 34010005		ori	$at,$0,0x05
 1115 00400e60 11e10041		beq	$t7,$at,fl3test 
 1116                       
 1117 00400e64 081003dc	    j addtofl2
 1118                       
 1119                   cfwhite:
 1120                  	    beq $t7,3,fl3test
 1120                  		li	$at,3 
 1120 00400e68 34010003		ori	$at,$0,0x03
 1120 00400e6c 11e1003e		beq	$t7,$at,fl3test 
 1121                  	    beq $t7,7,fl3test
 1121                  		li	$at,7 
 1121 00400e70 34010007		ori	$at,$0,0x07
 1121 00400e74 11e1003c		beq	$t7,$at,fl3test 
 1122                       
 1123 00400e78 081003dc	    j addtofl2
 1124                       
 1125                   fl3:
 1126 00400e7c 21520002	     addi $s2,$t2,2
 1127                       
 1128 00400e80 081003d7	    j fl4test
 1129                   
 1130                   fl4:
 1131                      
 1132 00400e84 ae2c0010	   sw $t4,16($s1)
 1133 00400e88 ae28000c	   sw $t0,12($s1)
 1134 00400e8c ae2a0008	   sw $t2,8($s1)
 1135 00400e90 ae290004	   sw $t1,4($s1)
 1136 00400e94 ae2b0000	   sw $t3,0($s1)  
 1137                     
 1138 00400e98 0c1001d4	   jal isValidJump
 1139                      
 1140 00400e9c 8e2c0010	   lw $t4,16($s1)
 1141 00400ea0 8e28000c	   lw $t0,12($s1)
 1142 00400ea4 8e2a0008	   lw $t2,8($s1)
 1143 00400ea8 8e290004	   lw $t1,4($s1)
 1144 00400eac 8e2b0000	   lw $t3,0($s1)  
 1145                      
 1146 00400eb0 21160002	   addi $s6,$t0,2
 1147                    
 1148                    
 1149                  	   beq $v0,1,into2
 1149                  		li	$at,1 
 1149 00400eb4 34010001		ori	$at,$0,0x01
 1149 00400eb8 10410001		beq	$v0,$at,into2 
 1150 00400ebc 081003d6	   j nextl4
 1151                   
 1152                   into2:
 1153                  	    mul $t5,$t4,4
 1153                  		li	$at,4 
 1153 00400ec0 34010004		ori	$at,$0,0x04
 1153 00400ec4 01810018		mult	$t4,$at 
 1153 00400ec8 00006812		mflo	$t5 
 1154                       
 1155                  	    mul $t5,$t5,4
 1155                  		li	$at,4 
 1155 00400ecc 34010004		ori	$at,$0,0x04
 1155 00400ed0 01a10018		mult	$t5,$at 
 1155 00400ed4 00006812		mflo	$t5 
 1156                       
 1157 00400ed8 01be7020	    add $t6,$t5,$fp
 1158 00400edc adc80000	    sw $t0,0($t6)
 1159                       
 1160                  	    mul $t5,$t4,4
 1160                  		li	$at,4 
 1160 00400ee0 34010004		ori	$at,$0,0x04
 1160 00400ee4 01810018		mult	$t4,$at 
 1160 00400ee8 00006812		mflo	$t5 
 1161 00400eec 21ad0001	    addi $t5,$t5,1
 1162                       
 1163                  	    mul $t5,$t5,4
 1163                  		li	$at,4 
 1163 00400ef0 34010004		ori	$at,$0,0x04
 1163 00400ef4 01a10018		mult	$t5,$at 
 1163 00400ef8 00006812		mflo	$t5 
 1164                       
 1165 00400efc 01be7020	    add $t6,$t5,$fp
 1166 00400f00 adca0000	    sw $t2,0($t6)
 1167                       
 1168                  	    mul $t5,$t4,4
 1168                  		li	$at,4 
 1168 00400f04 34010004		ori	$at,$0,0x04
 1168 00400f08 01810018		mult	$t4,$at 
 1168 00400f0c 00006812		mflo	$t5 
 1169 00400f10 21ad0002	    addi $t5,$t5,2
 1170                       
 1171                  	    mul $t5,$t5,4
 1171                  		li	$at,4 
 1171 00400f14 34010004		ori	$at,$0,0x04
 1171 00400f18 01a10018		mult	$t5,$at 
 1171 00400f1c 00006812		mflo	$t5 
 1172                       
 1173 00400f20 01be7020	    add $t6,$t5,$fp
 1174 00400f24 adc90000	    sw $t1,0($t6)
 1175                       
 1176                  	    mul $t5,$t4,4
 1176                  		li	$at,4 
 1176 00400f28 34010004		ori	$at,$0,0x04
 1176 00400f2c 01810018		mult	$t4,$at 
 1176 00400f30 00006812		mflo	$t5 
 1177 00400f34 21ad0003	    addi $t5,$t5,3
 1178                       
 1179                  	    mul $t5,$t5,4
 1179                  		li	$at,4 
 1179 00400f38 34010004		ori	$at,$0,0x04
 1179 00400f3c 01a10018		mult	$t5,$at 
 1179 00400f40 00006812		mflo	$t5 
 1180                       
 1181 00400f44 01be7020	    add $t6,$t5,$fp
 1182 00400f48 adcb0000	    sw $t3,0($t6)
 1183                       
 1184 00400f4c 218c0001	    addi $t4,$t4,1
 1185                       
 1186                  	    beq $t4,24,returnfunc2
 1186                  		li	$at,24 
 1186 00400f50 34010018		ori	$at,$0,0x18
 1186 00400f54 1181000e		beq	$t4,$at,returnfunc2 
 1187                       
 1188                   nextl4:
 1189 00400f58 216b0002	     addi $t3,$t3,2
 1190                       
 1191                   fl4test:
 1192                  	    ble $t3,$s2,fl4
 1192 00400f5c 024b082a		slt	$at,$s2,$t3 
 1192 00400f60 1020ffc8		beq	$at,$0,fl4 
 1193                       
 1194 00400f64 21290002	    addi $t1,$t1,2
 1195                       
 1196                   fl3test:
 1197                  	    ble $t1,$s6,fl3
 1197 00400f68 02c9082a		slt	$at,$s6,$t1 
 1197 00400f6c 1020ffc3		beq	$at,$0,fl3 
 1198                       
 1199                   addtofl2:
 1200 00400f70 214a0001	    addi $t2,$t2,1
 1201                       
 1202                   fl2test:
 1203                  	    blt $t2,10,fl2
 1203                  		li	$at,10 
 1203 00400f74 3401000a		ori	$at,$0,0x0A
 1203 00400f78 0141082a		slt	$at,$t2,$at 
 1203 00400f7c 1420ffa4		bne	$at,$0,fl2 
 1204                       
 1205                       
 1206 00400f80 21080001	    addi $t0,$t0,1
 1207                       
 1208                   fl1test:
 1209                  	    blt $t0,10,fl1
 1209                  		li	$at,10 
 1209 00400f84 3401000a		ori	$at,$0,0x0A
 1209 00400f88 0101082a		slt	$at,$t0,$at 
 1209 00400f8c 1420ff9e		bne	$at,$0,fl1 
 1210                       
 1211                   returnfunc2:
 1212 00400f90 01801021	    mov $v0,$t4
 1213                       
 1214 00400f94 8cff0000	    lw $ra,0($a3)
 1215 00400f98 03e00008	    jr $ra
 1216                       
 1217                   
 1218                   lfsr:
 1219                  	    li $a3,0x00000001
 1219 00400f9c 34070001		ori	$a3,$0,0x01
 1220 00400fa0 00094042	    srl $t0,$t1,1
 1221 00400fa4 01275024	    and $t2,$t1,$a3
 1222 00400fa8 000a5022	    neg $t2,$t2
 1223 00400fac 01465024	    and $t2,$t2,$a2
 1224 00400fb0 010a1026	    xor $v0,$t0,$t2
 1225 00400fb4 00471024	    and $v0,$v0,$a3
 1226                       
 1227 00400fb8 03e00008	    jr $ra
 1228                   
 1229                   exit:
 1230 00400fbc 0000028c	    syscall $exit
                 	